; Function Attrs: nounwind uwtable
define internal ptr @aes_128_ocb_newctx(ptr readnone captures(none) %0) #0 {
  %2 = tail call i32 @ossl_prov_is_running() #7
  %.not.i = icmp eq i32 %2, 0
  br i1 %.not.i, label %aes_ocb_newctx.exit, label %3

3:                                                ; preds = %1
  %4 = tail call noalias ptr @CRYPTO_zalloc(i64 noundef 944, ptr noundef nonnull @.str, i32 noundef 314) #7
  %.not11.i = icmp eq ptr %4, null
  br i1 %.not11.i, label %aes_ocb_newctx.exit, label %5

5:                                                ; preds = %3
  %6 = tail call ptr @ossl_prov_cipher_hw_aes_ocb(i64 noundef 128) #7
  tail call void @ossl_cipher_generic_initkey(ptr noundef nonnull %4, i64 noundef 128, i64 noundef 128, i64 noundef 96, i32 noundef 65539, i64 noundef 3, ptr noundef %6, ptr noundef null) #7
  %7 = getelementptr inbounds nuw i8, ptr %4, i64 872
  store i64 16, ptr %7, align 8, !tbaa !3
  br label %aes_ocb_newctx.exit

aes_ocb_newctx.exit:                              ; preds = %1, %3, %5
  %.0.i = phi ptr [ null, %1 ], [ %4, %5 ], [ null, %3 ]
  ret ptr %.0.i
}